; Function Attrs: mustprogress nounwind uwtable
define hidden noundef i64 @_ZNK16XObjectAllocator9remainingEv(ptr nocapture noundef nonnull readonly align 8 dereferenceable(56) %0) local_unnamed_addr #1 align 2 {
  %2 = load i8, ptr %0, align 8
  %3 = trunc i8 %2 to i1
  %4 = getelementptr inbounds i8, ptr %0, i64 48
  br i1 %3, label %5, label %20

5:                                                ; preds = %1
  %6 = load ptr, ptr @_ZN4XCPU9_affinityE, align 8
  %7 = tail call align 4 ptr @llvm.threadlocal.address.p0(ptr align 4 @_ZN4XCPU4_cpuE)
  %8 = load i32, ptr %7, align 4
  %9 = zext i32 %8 to i64
  %10 = getelementptr inbounds %class.PaddedEnd, ptr %6, i64 %9
  %11 = load ptr, ptr %10, align 8
  %12 = tail call align 8 ptr @llvm.threadlocal.address.p0(ptr align 8 @_ZN4XCPU5_selfE)
  %13 = load ptr, ptr %12, align 8
  %14 = icmp eq ptr %11, %13
  br i1 %14, label %_ZN14XPerCPUStorage2idEv.exit.i, label %15

15:                                               ; preds = %5
  %16 = tail call noundef i32 @_ZN4XCPU7id_slowEv() #7
  %.pre.i = zext i32 %16 to i64
  br label %_ZN14XPerCPUStorage2idEv.exit.i

_ZN14XPerCPUStorage2idEv.exit.i:                  ; preds = %15, %5
  %.pre-phi.i = phi i64 [ %9, %5 ], [ %.pre.i, %15 ]
  %17 = load i64, ptr %4, align 8
  %18 = shl nuw nsw i64 %.pre-phi.i, 12
  %19 = add i64 %18, %17
  br label %_ZNK16XObjectAllocator22shared_small_page_addrEv.exit

20:                                               ; preds = %1
  %21 = load i64, ptr %4, align 8
  br label %_ZNK16XObjectAllocator22shared_small_page_addrEv.exit

_ZNK16XObjectAllocator22shared_small_page_addrEv.exit: ; preds = %_ZN14XPerCPUStorage2idEv.exit.i, %20
  %.in.i = phi i64 [ %19, %_ZN14XPerCPUStorage2idEv.exit.i ], [ %21, %20 ]
  %22 = inttoptr i64 %.in.i to ptr
  %23 = load volatile ptr, ptr %22, align 8
  tail call void asm sideeffect "", "~{memory},~{dirflag},~{fpsr},~{flags}"() #7, !srcloc !10
  %.not = icmp eq ptr %23, null
  br i1 %.not, label %30, label %24

24:                                               ; preds = %_ZNK16XObjectAllocator22shared_small_page_addrEv.exit
  %25 = getelementptr inbounds i8, ptr %23, i64 16
  %26 = load i64, ptr %25, align 8
  %27 = getelementptr inbounds i8, ptr %23, i64 24
  %28 = load volatile i64, ptr %27, align 8
  %29 = sub i64 %26, %28
  br label %30

30:                                               ; preds = %_ZNK16XObjectAllocator22shared_small_page_addrEv.exit, %24
  %.0 = phi i64 [ %29, %24 ], [ 0, %_ZNK16XObjectAllocator22shared_small_page_addrEv.exit ]
  ret i64 %.0
}